target datalayout = "e-m:e-p270:32:32-p271:32:32-p272:64:64-i64:64-i128:128-f80:128-n8:16:32:64-S128"
target triple = "x86_64-pc-linux-gnu"

%"class.llvm::StringRef" = type { ptr, i64 }
%"class.(anonymous namespace)::InvalidPtrChecker" = type { %"class.clang::ento::Checker", %"class.clang::ento::BugType", i8, [7 x i8], %"class.clang::ento::CallDescription", %"class.clang::ento::CallDescriptionMap", %"class.clang::ento::CallDescriptionMap" }
%"class.clang::ento::Checker" = type { %"class.clang::ento::CheckerBase" }
%"class.clang::ento::CheckerBase" = type { %"class.clang::ProgramPointTag", %"class.clang::ento::CheckerNameRef" }
%"class.clang::ProgramPointTag" = type { ptr, ptr }
%"class.clang::ento::CheckerNameRef" = type { %"class.llvm::StringRef" }
%"class.clang::ento::BugType" = type <{ ptr, %"class.clang::ento::CheckerNameRef", %"class.std::__cxx11::basic_string", %"class.std::__cxx11::basic_string", ptr, i8, [7 x i8] }>
%"class.std::__cxx11::basic_string" = type { %"struct.std::__cxx11::basic_string<char>::_Alloc_hider", i64, %union.anon }
%"struct.std::__cxx11::basic_string<char>::_Alloc_hider" = type { ptr }
%union.anon = type { i64, [8 x i8] }
%"class.clang::ento::CallDescription" = type <{ %"class.std::optional.127", %"class.std::vector", %"class.std::optional.135", %"class.std::optional.135", i32, [4 x i8] }>
%"class.std::optional.127" = type { %"struct.std::_Optional_base.128" }
%"struct.std::_Optional_base.128" = type { %"struct.std::_Optional_payload.130" }
%"struct.std::_Optional_payload.130" = type { %"struct.std::_Optional_payload_base.base.132", [7 x i8] }
%"struct.std::_Optional_payload_base.base.132" = type <{ %"union.std::_Optional_payload_base<const clang::IdentifierInfo *>::_Storage", i8 }>
%"union.std::_Optional_payload_base<const clang::IdentifierInfo *>::_Storage" = type { ptr }
%"class.std::vector" = type { %"struct.std::_Vector_base" }
%"struct.std::_Vector_base" = type { %"struct.std::_Vector_base<std::__cxx11::basic_string<char>, std::allocator<std::__cxx11::basic_string<char>>>::_Vector_impl" }
%"struct.std::_Vector_base<std::__cxx11::basic_string<char>, std::allocator<std::__cxx11::basic_string<char>>>::_Vector_impl" = type { %"struct.std::_Vector_base<std::__cxx11::basic_string<char>, std::allocator<std::__cxx11::basic_string<char>>>::_Vector_impl_data" }
%"struct.std::_Vector_base<std::__cxx11::basic_string<char>, std::allocator<std::__cxx11::basic_string<char>>>::_Vector_impl_data" = type { ptr, ptr, ptr }
%"class.std::optional.135" = type { %"struct.std::_Optional_base.136" }
%"struct.std::_Optional_base.136" = type { %"struct.std::_Optional_payload.138" }
%"struct.std::_Optional_payload.138" = type { %"struct.std::_Optional_payload_base.base.140", [3 x i8] }
%"struct.std::_Optional_payload_base.base.140" = type <{ %"union.std::_Optional_payload_base<unsigned int>::_Storage", i8 }>
%"union.std::_Optional_payload_base<unsigned int>::_Storage" = type { i32 }
%"class.clang::ento::CallDescriptionMap" = type { %"class.std::vector.143" }
%"class.std::vector.143" = type { %"struct.std::_Vector_base.144" }
%"struct.std::_Vector_base.144" = type { %"struct.std::_Vector_base<std::pair<clang::ento::CallDescription, void ((anonymous namespace)::InvalidPtrChecker::*)(const clang::ento::CallEvent &, clang::ento::CheckerContext &) const>, std::allocator<std::pair<clang::ento::CallDescription, void ((anonymous namespace)::InvalidPtrChecker::*)(const clang::ento::CallEvent &, clang::ento::CheckerContext &) const>>>::_Vector_impl" }
%"struct.std::_Vector_base<std::pair<clang::ento::CallDescription, void ((anonymous namespace)::InvalidPtrChecker::*)(const clang::ento::CallEvent &, clang::ento::CheckerContext &) const>, std::allocator<std::pair<clang::ento::CallDescription, void ((anonymous namespace)::InvalidPtrChecker::*)(const clang::ento::CallEvent &, clang::ento::CheckerContext &) const>>>::_Vector_impl" = type { %"struct.std::_Vector_base<std::pair<clang::ento::CallDescription, void ((anonymous namespace)::InvalidPtrChecker::*)(const clang::ento::CallEvent &, clang::ento::CheckerContext &) const>, std::allocator<std::pair<clang::ento::CallDescription, void ((anonymous namespace)::InvalidPtrChecker::*)(const clang::ento::CallEvent &, clang::ento::CheckerContext &) const>>>::_Vector_impl_data" }
%"struct.std::_Vector_base<std::pair<clang::ento::CallDescription, void ((anonymous namespace)::InvalidPtrChecker::*)(const clang::ento::CallEvent &, clang::ento::CheckerContext &) const>, std::allocator<std::pair<clang::ento::CallDescription, void ((anonymous namespace)::InvalidPtrChecker::*)(const clang::ento::CallEvent &, clang::ento::CheckerContext &) const>>>::_Vector_impl_data" = type { ptr, ptr, ptr }
%"class.llvm::SmallVectorBase" = type { ptr, i32, i32 }
%class.anon.429 = type { ptr, ptr }
%"class.llvm::raw_ostream" = type { ptr, i32, ptr, ptr, ptr, i8, i32 }
%"class.clang::ento::BugReport" = type { ptr, i32, ptr, %"class.std::__cxx11::basic_string", %"class.std::__cxx11::basic_string", %"class.llvm::SmallVector.325", %"class.llvm::SmallVector.330", %"class.llvm::SmallVector.335" }
%"class.llvm::SmallVector.325" = type { %"class.llvm::SmallVectorImpl.326", %"struct.llvm::SmallVectorStorage.329" }
%"class.llvm::SmallVectorImpl.326" = type { %"class.llvm::SmallVectorTemplateBase.327" }
%"class.llvm::SmallVectorTemplateBase.327" = type { %"class.llvm::SmallVectorTemplateCommon.328" }
%"class.llvm::SmallVectorTemplateCommon.328" = type { %"class.llvm::SmallVectorBase" }
%"struct.llvm::SmallVectorStorage.329" = type { [32 x i8] }
%"class.llvm::SmallVector.330" = type { %"class.llvm::SmallVectorImpl.331", %"struct.llvm::SmallVectorStorage.334" }
%"class.llvm::SmallVectorImpl.331" = type { %"class.llvm::SmallVectorTemplateBase.332" }
%"class.llvm::SmallVectorTemplateBase.332" = type { %"class.llvm::SmallVectorTemplateCommon.333" }
%"class.llvm::SmallVectorTemplateCommon.333" = type { %"class.llvm::SmallVectorBase" }
%"struct.llvm::SmallVectorStorage.334" = type { [64 x i8] }
%"class.llvm::SmallVector.335" = type { %"class.llvm::SmallVectorImpl.336", %"struct.llvm::SmallVectorStorage.339" }
%"class.llvm::SmallVectorImpl.336" = type { %"class.llvm::SmallVectorTemplateBase.337" }
%"class.llvm::SmallVectorTemplateBase.337" = type { %"class.llvm::SmallVectorTemplateCommon.338" }
%"class.llvm::SmallVectorTemplateCommon.338" = type { %"class.llvm::SmallVectorBase" }
%"struct.llvm::SmallVectorStorage.339" = type { [256 x i8] }

@.str.22 = private unnamed_addr constant [32 x i8] c"previous function call was here\00", align 1

; Function Attrs: mustprogress nounwind uwtable
define linkonce_odr hidden noundef ptr @_ZNK4llvm9StringRef4dataEv(ptr noundef nonnull align 8 dereferenceable(16) %0) #0 comdat align 2 {
  %2 = alloca ptr, align 8
  store ptr %0, ptr %2, align 8
  %3 = load ptr, ptr %2, align 8
  %4 = getelementptr inbounds nuw %"class.llvm::StringRef", ptr %3, i32 0, i32 0
  %5 = load ptr, ptr %4, align 8
  ret ptr %5
}

; Function Attrs: mustprogress nounwind uwtable
define linkonce_odr hidden noundef i64 @_ZNK4llvm9StringRef4sizeEv(ptr noundef nonnull align 8 dereferenceable(16) %0) #0 comdat align 2 {
  %2 = alloca ptr, align 8
  store ptr %0, ptr %2, align 8
  %3 = load ptr, ptr %2, align 8
  %4 = getelementptr inbounds nuw %"class.llvm::StringRef", ptr %3, i32 0, i32 1
  %5 = load i64, ptr %4, align 8
  ret i64 %5
}

; Function Attrs: mustprogress nounwind uwtable
define linkonce_odr hidden noundef i64 @_ZNSt11char_traitsIcE6lengthEPKc(ptr noundef %0) #0 comdat align 2 {
  %2 = alloca ptr, align 8
  store ptr %0, ptr %2, align 8
  %3 = load ptr, ptr %2, align 8
  %4 = call i64 @strlen(ptr noundef %3) #11
  ret i64 %4
}

; Function Attrs: mustprogress nounwind uwtable
define linkonce_odr hidden noundef nonnull align 8 dereferenceable(48) ptr @_ZN4llvm11raw_ostreamlsENS_9StringRefE(ptr noundef nonnull align 8 dereferenceable(48) %0, ptr %1, i64 %2) #0 comdat align 2 {
  %4 = alloca ptr, align 8
  %5 = alloca %"class.llvm::StringRef", align 8
  %6 = alloca ptr, align 8
  %7 = alloca i64, align 8
  %8 = getelementptr inbounds nuw { ptr, i64 }, ptr %5, i32 0, i32 0
  store ptr %1, ptr %8, align 8
  %9 = getelementptr inbounds nuw { ptr, i64 }, ptr %5, i32 0, i32 1
  store i64 %2, ptr %9, align 8
  store ptr %0, ptr %6, align 8
  %10 = load ptr, ptr %6, align 8
  %11 = call noundef i64 @_ZNK4llvm9StringRef4sizeEv(ptr noundef nonnull align 8 dereferenceable(16) %5)
  store i64 %11, ptr %7, align 8
  %12 = load i64, ptr %7, align 8
  %13 = getelementptr inbounds nuw %"class.llvm::raw_ostream", ptr %10, i32 0, i32 3
  %14 = load ptr, ptr %13, align 8
  %15 = getelementptr inbounds nuw %"class.llvm::raw_ostream", ptr %10, i32 0, i32 4
  %16 = load ptr, ptr %15, align 8
  %17 = ptrtoint ptr %14 to i64
  %18 = ptrtoint ptr %16 to i64
  %19 = sub i64 %17, %18
  %20 = icmp ugt i64 %12, %19
  br i1 %20, label %21, label %25

21:                                               ; preds = %3
  %22 = call noundef ptr @_ZNK4llvm9StringRef4dataEv(ptr noundef nonnull align 8 dereferenceable(16) %5)
  %23 = load i64, ptr %7, align 8
  %24 = call noundef nonnull align 8 dereferenceable(48) ptr @_ZN4llvm11raw_ostream5writeEPKcm(ptr noundef nonnull align 8 dereferenceable(48) %10, ptr noundef %22, i64 noundef %23)
  store ptr %24, ptr %4, align 8
  br label %38

25:                                               ; preds = %3
  %26 = load i64, ptr %7, align 8
  %27 = icmp ne i64 %26, 0
  br i1 %27, label %28, label %37

28:                                               ; preds = %25
  %29 = getelementptr inbounds nuw %"class.llvm::raw_ostream", ptr %10, i32 0, i32 4
  %30 = load ptr, ptr %29, align 8
  %31 = call noundef ptr @_ZNK4llvm9StringRef4dataEv(ptr noundef nonnull align 8 dereferenceable(16) %5)
  %32 = load i64, ptr %7, align 8
  call void @llvm.memcpy.p0.p0.i64(ptr align 1 %30, ptr align 1 %31, i64 %32, i1 false)
  %33 = load i64, ptr %7, align 8
  %34 = getelementptr inbounds nuw %"class.llvm::raw_ostream", ptr %10, i32 0, i32 4
  %35 = load ptr, ptr %34, align 8
  %36 = getelementptr inbounds i8, ptr %35, i64 %33
  store ptr %36, ptr %34, align 8
  br label %37

37:                                               ; preds = %28, %25
  store ptr %10, ptr %4, align 8
  br label %38

38:                                               ; preds = %37, %21
  %39 = load ptr, ptr %4, align 8
  ret ptr %39
}

; Function Attrs: mustprogress nounwind uwtable
define linkonce_odr hidden void @_ZN4llvm9StringRefC2EPKc(ptr noundef nonnull align 8 dereferenceable(16) %0, ptr noundef %1) unnamed_addr #0 comdat align 2 {
  %3 = alloca ptr, align 8
  %4 = alloca ptr, align 8
  store ptr %0, ptr %3, align 8
  store ptr %1, ptr %4, align 8
  %5 = load ptr, ptr %3, align 8
  %6 = getelementptr inbounds nuw %"class.llvm::StringRef", ptr %5, i32 0, i32 0
  %7 = load ptr, ptr %4, align 8
  store ptr %7, ptr %6, align 8
  %8 = getelementptr inbounds nuw %"class.llvm::StringRef", ptr %5, i32 0, i32 1
  %9 = load ptr, ptr %4, align 8
  %10 = icmp ne ptr %9, null
  br i1 %10, label %11, label %14

11:                                               ; preds = %2
  %12 = load ptr, ptr %4, align 8
  %13 = call noundef i64 @_ZNSt11char_traitsIcE6lengthEPKc(ptr noundef %12)
  br label %15

14:                                               ; preds = %2
  br label %15

15:                                               ; preds = %14, %11
  %16 = phi i64 [ %13, %11 ], [ 0, %14 ]
  store i64 %16, ptr %8, align 8
  ret void
}

; Function Attrs: mustprogress nounwind uwtable
define linkonce_odr hidden noundef nonnull align 8 dereferenceable(48) ptr @_ZN4llvm11raw_ostreamlsEPKc(ptr noundef nonnull align 8 dereferenceable(48) %0, ptr noundef %1) #0 comdat align 2 {
  %3 = alloca ptr, align 8
  %4 = alloca ptr, align 8
  %5 = alloca %"class.llvm::StringRef", align 8
  store ptr %0, ptr %3, align 8
  store ptr %1, ptr %4, align 8
  %6 = load ptr, ptr %3, align 8
  %7 = load ptr, ptr %4, align 8
  call void @_ZN4llvm9StringRefC2EPKc(ptr noundef nonnull align 8 dereferenceable(16) %5, ptr noundef %7)
  %8 = getelementptr inbounds nuw { ptr, i64 }, ptr %5, i32 0, i32 0
  %9 = load ptr, ptr %8, align 8
  %10 = getelementptr inbounds nuw { ptr, i64 }, ptr %5, i32 0, i32 1
  %11 = load i64, ptr %10, align 8
  %12 = call noundef nonnull align 8 dereferenceable(48) ptr @_ZN4llvm11raw_ostreamlsENS_9StringRefE(ptr noundef nonnull align 8 dereferenceable(48) %6, ptr %9, i64 %11)
  ret ptr %12
}

; Function Attrs: mustprogress nounwind uwtable
define linkonce_odr hidden noundef nonnull align 8 dereferenceable(97) ptr @_ZNK5clang4ento9BugReport10getBugTypeEv(ptr noundef nonnull align 8 dereferenceable(488) %0) #0 comdat align 2 {
  %2 = alloca ptr, align 8
  store ptr %0, ptr %2, align 8
  %3 = load ptr, ptr %2, align 8
  %4 = getelementptr inbounds nuw %"class.clang::ento::BugReport", ptr %3, i32 0, i32 2
  %5 = load ptr, ptr %4, align 8
  ret ptr %5
}

; Function Attrs: mustprogress nounwind uwtable
define internal void @"_ZZNK12_GLOBAL__N_117InvalidPtrChecker34postPreviousReturnInvalidatingCallERKN5clang4ento9CallEventERNS2_14CheckerContextEENK3$_1clERNS2_22PathSensitiveBugReportERN4llvm11raw_ostreamE"(ptr noundef nonnull align 8 dereferenceable(16) %0, ptr noundef nonnull align 8 dereferenceable(1016) %1, ptr noundef nonnull align 8 dereferenceable(48) %2) #0 align 2 {
  %4 = alloca ptr, align 8
  %5 = alloca ptr, align 8
  %6 = alloca ptr, align 8
  store ptr %0, ptr %4, align 8
  store ptr %1, ptr %5, align 8
  store ptr %2, ptr %6, align 8
  %7 = load ptr, ptr %4, align 8
  %8 = getelementptr inbounds nuw %class.anon.429, ptr %7, i32 0, i32 0
  %9 = load ptr, ptr %8, align 8
  %10 = load ptr, ptr %5, align 8
  %11 = getelementptr inbounds nuw %class.anon.429, ptr %7, i32 0, i32 1
  %12 = load ptr, ptr %11, align 8
  %13 = call noundef zeroext i1 @_ZNK5clang4ento22PathSensitiveBugReport13isInterestingEPKNS0_9MemRegionE(ptr noundef nonnull align 8 dereferenceable(1016) %10, ptr noundef %12)
  br i1 %13, label %14, label %19

14:                                               ; preds = %3
  %15 = load ptr, ptr %5, align 8
  %16 = call noundef nonnull align 8 dereferenceable(97) ptr @_ZNK5clang4ento9BugReport10getBugTypeEv(ptr noundef nonnull align 8 dereferenceable(488) %15)
  %17 = getelementptr inbounds nuw %"class.(anonymous namespace)::InvalidPtrChecker", ptr %9, i32 0, i32 1
  %18 = icmp ne ptr %16, %17
  br i1 %18, label %19, label %20

19:                                               ; preds = %14, %3
  br label %23

20:                                               ; preds = %14
  %21 = load ptr, ptr %6, align 8
  %22 = call noundef nonnull align 8 dereferenceable(48) ptr @_ZN4llvm11raw_ostreamlsEPKc(ptr noundef nonnull align 8 dereferenceable(48) %21, ptr noundef @.str.22)
  br label %23

23:                                               ; preds = %20, %19
  ret void
}

; Function Attrs: mustprogress nounwind uwtable
define linkonce_odr hidden noundef ptr @_ZNKSt9_Any_data9_M_accessEv(ptr noundef nonnull align 8 dereferenceable(16) %0) #0 comdat align 2 {
  %2 = alloca ptr, align 8
  store ptr %0, ptr %2, align 8
  %3 = load ptr, ptr %2, align 8
  %4 = getelementptr inbounds [16 x i8], ptr %3, i64 0, i64 0
  ret ptr %4
}

; Function Attrs: mustprogress nounwind uwtable
define internal void @"_ZSt13__invoke_implIvRZNK12_GLOBAL__N_117InvalidPtrChecker34postPreviousReturnInvalidatingCallERKN5clang4ento9CallEventERNS3_14CheckerContextEE3$_1JRNS3_22PathSensitiveBugReportERN4llvm11raw_ostreamEEET_St14__invoke_otherOT0_DpOT1_"(ptr noundef nonnull align 8 dereferenceable(16) %0, ptr noundef nonnull align 8 dereferenceable(1016) %1, ptr noundef nonnull align 8 dereferenceable(48) %2) #0 {
  %4 = alloca ptr, align 8
  %5 = alloca ptr, align 8
  %6 = alloca ptr, align 8
  store ptr %0, ptr %4, align 8
  store ptr %1, ptr %5, align 8
  store ptr %2, ptr %6, align 8
  %7 = load ptr, ptr %4, align 8
  %8 = load ptr, ptr %5, align 8
  %9 = load ptr, ptr %6, align 8
  call void @"_ZZNK12_GLOBAL__N_117InvalidPtrChecker34postPreviousReturnInvalidatingCallERKN5clang4ento9CallEventERNS2_14CheckerContextEENK3$_1clERNS2_22PathSensitiveBugReportERN4llvm11raw_ostreamE"(ptr noundef nonnull align 8 dereferenceable(16) %7, ptr noundef nonnull align 8 dereferenceable(1016) %8, ptr noundef nonnull align 8 dereferenceable(48) %9)
  ret void
}

; Function Attrs: mustprogress nounwind uwtable
define internal noundef nonnull align 8 dereferenceable(16) ptr @"_ZNKSt9_Any_data9_M_accessIZNK12_GLOBAL__N_117InvalidPtrChecker34postPreviousReturnInvalidatingCallERKN5clang4ento9CallEventERNS4_14CheckerContextEE3$_1EERKT_v"(ptr noundef nonnull align 8 dereferenceable(16) %0) #0 align 2 {
  %2 = alloca ptr, align 8
  store ptr %0, ptr %2, align 8
  %3 = load ptr, ptr %2, align 8
  %4 = call noundef ptr @_ZNKSt9_Any_data9_M_accessEv(ptr noundef nonnull align 8 dereferenceable(16) %3) #11
  ret ptr %4
}

; Function Attrs: mustprogress nounwind uwtable
define internal void @"_ZSt10__invoke_rIvRZNK12_GLOBAL__N_117InvalidPtrChecker34postPreviousReturnInvalidatingCallERKN5clang4ento9CallEventERNS3_14CheckerContextEE3$_1JRNS3_22PathSensitiveBugReportERN4llvm11raw_ostreamEEENSt9enable_ifIX16is_invocable_r_vIT_T0_DpT1_EESH_E4typeEOSI_DpOSJ_"(ptr noundef nonnull align 8 dereferenceable(16) %0, ptr noundef nonnull align 8 dereferenceable(1016) %1, ptr noundef nonnull align 8 dereferenceable(48) %2) #0 {
  %4 = alloca ptr, align 8
  %5 = alloca ptr, align 8
  %6 = alloca ptr, align 8
  store ptr %0, ptr %4, align 8
  store ptr %1, ptr %5, align 8
  store ptr %2, ptr %6, align 8
  %7 = load ptr, ptr %4, align 8
  %8 = load ptr, ptr %5, align 8
  %9 = load ptr, ptr %6, align 8
  call void @"_ZSt13__invoke_implIvRZNK12_GLOBAL__N_117InvalidPtrChecker34postPreviousReturnInvalidatingCallERKN5clang4ento9CallEventERNS3_14CheckerContextEE3$_1JRNS3_22PathSensitiveBugReportERN4llvm11raw_ostreamEEET_St14__invoke_otherOT0_DpOT1_"(ptr noundef nonnull align 8 dereferenceable(16) %7, ptr noundef nonnull align 8 dereferenceable(1016) %8, ptr noundef nonnull align 8 dereferenceable(48) %9)
  ret void
}

; Function Attrs: mustprogress nounwind uwtable
define internal noundef ptr @"_ZNSt14_Function_base13_Base_managerIZNK12_GLOBAL__N_117InvalidPtrChecker34postPreviousReturnInvalidatingCallERKN5clang4ento9CallEventERNS4_14CheckerContextEE3$_1E14_M_get_pointerERKSt9_Any_data"(ptr noundef nonnull align 8 dereferenceable(16) %0) #0 align 2 {
  %2 = alloca ptr, align 8
  %3 = alloca ptr, align 8
  store ptr %0, ptr %2, align 8
  %4 = load ptr, ptr %2, align 8
  %5 = call noundef nonnull align 8 dereferenceable(16) ptr @"_ZNKSt9_Any_data9_M_accessIZNK12_GLOBAL__N_117InvalidPtrChecker34postPreviousReturnInvalidatingCallERKN5clang4ento9CallEventERNS4_14CheckerContextEE3$_1EERKT_v"(ptr noundef nonnull align 8 dereferenceable(16) %4) #11
  store ptr %5, ptr %3, align 8
  %6 = load ptr, ptr %3, align 8
  ret ptr %6
}

; Function Attrs: mustprogress nounwind uwtable
define internal void @"_ZNSt17_Function_handlerIFvRN5clang4ento22PathSensitiveBugReportERN4llvm11raw_ostreamEEZNK12_GLOBAL__N_117InvalidPtrChecker34postPreviousReturnInvalidatingCallERKNS1_9CallEventERNS1_14CheckerContextEE3$_1E9_M_invokeERKSt9_Any_dataS3_S6_"(ptr noundef nonnull align 8 dereferenceable(16) %0, ptr noundef nonnull align 8 dereferenceable(1016) %1, ptr noundef nonnull align 8 dereferenceable(48) %2) #0 align 2 {
  %4 = alloca ptr, align 8
  %5 = alloca ptr, align 8
  %6 = alloca ptr, align 8
  store ptr %0, ptr %4, align 8
  store ptr %1, ptr %5, align 8
  store ptr %2, ptr %6, align 8
  %7 = load ptr, ptr %4, align 8
  %8 = call noundef ptr @"_ZNSt14_Function_base13_Base_managerIZNK12_GLOBAL__N_117InvalidPtrChecker34postPreviousReturnInvalidatingCallERKN5clang4ento9CallEventERNS4_14CheckerContextEE3$_1E14_M_get_pointerERKSt9_Any_data"(ptr noundef nonnull align 8 dereferenceable(16) %7) #11
  %9 = load ptr, ptr %5, align 8
  %10 = load ptr, ptr %6, align 8
  call void @"_ZSt10__invoke_rIvRZNK12_GLOBAL__N_117InvalidPtrChecker34postPreviousReturnInvalidatingCallERKN5clang4ento9CallEventERNS3_14CheckerContextEE3$_1JRNS3_22PathSensitiveBugReportERN4llvm11raw_ostreamEEENSt9enable_ifIX16is_invocable_r_vIT_T0_DpT1_EESH_E4typeEOSI_DpOSJ_"(ptr noundef nonnull align 8 dereferenceable(16) %8, ptr noundef nonnull align 8 dereferenceable(1016) %9, ptr noundef nonnull align 8 dereferenceable(48) %10)
  ret void
}