; Function Attrs: mustprogress nounwind uwtable
define internal void @"_ZNSt17_Function_handlerIFvRN5clang4ento22PathSensitiveBugReportERN4llvm11raw_ostreamEEZNK12_GLOBAL__N_117InvalidPtrChecker34postPreviousReturnInvalidatingCallERKNS1_9CallEventERNS1_14CheckerContextEE3$_1E9_M_invokeERKSt9_Any_dataS3_S6_"(ptr nocapture noundef nonnull readonly align 8 dereferenceable(16) %0, ptr noundef nonnull align 8 dereferenceable(1016) %1, ptr noundef nonnull align 8 dereferenceable(48) %2) #0 align 2 {
  %.val = load ptr, ptr %0, align 8
  %4 = getelementptr inbounds i8, ptr %0, i64 8
  %.val3 = load ptr, ptr %4, align 8
  %5 = tail call noundef zeroext i1 @_ZNK5clang4ento22PathSensitiveBugReport13isInterestingEPKNS0_9MemRegionE(ptr noundef nonnull align 8 dereferenceable(1016) %1, ptr noundef %.val3) #19
  %6 = getelementptr inbounds nuw i8, ptr %1, i64 16
  %7 = load ptr, ptr %6, align 8
  %8 = getelementptr inbounds nuw i8, ptr %.val, i64 32
  %.not.i.i.i = icmp eq ptr %7, %8
  %or.cond.i.i.i = select i1 %5, i1 %.not.i.i.i, i1 false
  br i1 %or.cond.i.i.i, label %9, label %"_ZSt10__invoke_rIvRZNK12_GLOBAL__N_117InvalidPtrChecker34postPreviousReturnInvalidatingCallERKN5clang4ento9CallEventERNS3_14CheckerContextEE3$_1JRNS3_22PathSensitiveBugReportERN4llvm11raw_ostreamEEENSt9enable_ifIX16is_invocable_r_vIT_T0_DpT1_EESH_E4typeEOSI_DpOSJ_.exit"

9:                                                ; preds = %3
  %10 = getelementptr inbounds nuw i8, ptr %2, i64 24
  %11 = load ptr, ptr %10, align 8
  %12 = getelementptr inbounds nuw i8, ptr %2, i64 32
  %13 = load ptr, ptr %12, align 8
  %14 = ptrtoint ptr %11 to i64
  %15 = ptrtoint ptr %13 to i64
  %16 = sub i64 %14, %15
  %17 = icmp ult i64 %16, 31
  br i1 %17, label %18, label %20

18:                                               ; preds = %9
  %19 = tail call noundef nonnull align 8 dereferenceable(48) ptr @_ZN4llvm11raw_ostream5writeEPKcm(ptr noundef nonnull align 8 dereferenceable(48) %2, ptr noundef nonnull @.str.22, i64 noundef 31) #19
  br label %"_ZSt10__invoke_rIvRZNK12_GLOBAL__N_117InvalidPtrChecker34postPreviousReturnInvalidatingCallERKN5clang4ento9CallEventERNS3_14CheckerContextEE3$_1JRNS3_22PathSensitiveBugReportERN4llvm11raw_ostreamEEENSt9enable_ifIX16is_invocable_r_vIT_T0_DpT1_EESH_E4typeEOSI_DpOSJ_.exit"

20:                                               ; preds = %9
  tail call void @llvm.memcpy.p0.p0.i64(ptr noundef nonnull align 1 dereferenceable(31) %13, ptr noundef nonnull align 1 dereferenceable(31) @.str.22, i64 31, i1 false)
  %21 = load ptr, ptr %12, align 8
  %22 = getelementptr inbounds i8, ptr %21, i64 31
  store ptr %22, ptr %12, align 8
  br label %"_ZSt10__invoke_rIvRZNK12_GLOBAL__N_117InvalidPtrChecker34postPreviousReturnInvalidatingCallERKN5clang4ento9CallEventERNS3_14CheckerContextEE3$_1JRNS3_22PathSensitiveBugReportERN4llvm11raw_ostreamEEENSt9enable_ifIX16is_invocable_r_vIT_T0_DpT1_EESH_E4typeEOSI_DpOSJ_.exit"

"_ZSt10__invoke_rIvRZNK12_GLOBAL__N_117InvalidPtrChecker34postPreviousReturnInvalidatingCallERKN5clang4ento9CallEventERNS3_14CheckerContextEE3$_1JRNS3_22PathSensitiveBugReportERN4llvm11raw_ostreamEEENSt9enable_ifIX16is_invocable_r_vIT_T0_DpT1_EESH_E4typeEOSI_DpOSJ_.exit": ; preds = %3, %18, %20
  ret void
}